target datalayout = "e-m:e-p270:32:32-p271:32:32-p272:64:64-i64:64-i128:128-f80:128-n8:16:32:64-S128"
target triple = "x86_64-pc-linux-gnu"

%struct.lexbor_str_t = type { ptr, i64 }

; Function Attrs: nounwind uwtable
define internal i64 @lexbor_mraw_data_size(ptr noundef %0) #0 {
  %2 = alloca ptr, align 8
  store ptr %0, ptr %2, align 8
  %3 = load ptr, ptr %2, align 8
  %4 = getelementptr inbounds i8, ptr %3, i64 -8
  %5 = load i64, ptr %4, align 8
  ret i64 %5
}

; Function Attrs: nounwind uwtable
define internal i64 @lexbor_str_size(ptr noundef %0) #0 {
  %2 = alloca ptr, align 8
  store ptr %0, ptr %2, align 8
  %3 = load ptr, ptr %2, align 8
  %4 = getelementptr inbounds %struct.lexbor_str_t, ptr %3, i32 0, i32 0
  %5 = load ptr, ptr %4, align 8
  %6 = call i64 @lexbor_mraw_data_size(ptr noundef %5)
  ret i64 %6
}

; Function Attrs: nounwind uwtable
define hidden ptr @lexbor_str_check_size(ptr noundef %0, ptr noundef %1, i64 noundef %2) #0 {
  %4 = alloca ptr, align 8
  %5 = alloca ptr, align 8
  %6 = alloca ptr, align 8
  %7 = alloca i64, align 8
  %8 = alloca ptr, align 8
  store ptr %0, ptr %5, align 8
  store ptr %1, ptr %6, align 8
  store i64 %2, ptr %7, align 8
  %9 = load ptr, ptr %5, align 8
  %10 = getelementptr inbounds %struct.lexbor_str_t, ptr %9, i32 0, i32 1
  %11 = load i64, ptr %10, align 8
  %12 = load i64, ptr %7, align 8
  %13 = sub i64 -1, %12
  %14 = icmp ugt i64 %11, %13
  br i1 %14, label %15, label %16

15:                                               ; preds = %3
  store ptr null, ptr %4, align 8
  br label %48

16:                                               ; preds = %3
  %17 = load ptr, ptr %5, align 8
  %18 = getelementptr inbounds %struct.lexbor_str_t, ptr %17, i32 0, i32 1
  %19 = load i64, ptr %18, align 8
  %20 = load i64, ptr %7, align 8
  %21 = add i64 %19, %20
  %22 = load ptr, ptr %5, align 8
  %23 = call i64 @lexbor_str_size(ptr noundef %22)
  %24 = icmp ule i64 %21, %23
  br i1 %24, label %25, label %29

25:                                               ; preds = %16
  %26 = load ptr, ptr %5, align 8
  %27 = getelementptr inbounds %struct.lexbor_str_t, ptr %26, i32 0, i32 0
  %28 = load ptr, ptr %27, align 8
  store ptr %28, ptr %4, align 8
  br label %48

29:                                               ; preds = %16
  %30 = load ptr, ptr %6, align 8
  %31 = load ptr, ptr %5, align 8
  %32 = getelementptr inbounds %struct.lexbor_str_t, ptr %31, i32 0, i32 0
  %33 = load ptr, ptr %32, align 8
  %34 = load ptr, ptr %5, align 8
  %35 = getelementptr inbounds %struct.lexbor_str_t, ptr %34, i32 0, i32 1
  %36 = load i64, ptr %35, align 8
  %37 = load i64, ptr %7, align 8
  %38 = add i64 %36, %37
  %39 = call ptr @lexbor_mraw_realloc(ptr noundef %30, ptr noundef %33, i64 noundef %38)
  store ptr %39, ptr %8, align 8
  %40 = load ptr, ptr %8, align 8
  %41 = icmp eq ptr %40, null
  br i1 %41, label %42, label %43

42:                                               ; preds = %29
  store ptr null, ptr %4, align 8
  br label %48

43:                                               ; preds = %29
  %44 = load ptr, ptr %8, align 8
  %45 = load ptr, ptr %5, align 8
  %46 = getelementptr inbounds %struct.lexbor_str_t, ptr %45, i32 0, i32 0
  store ptr %44, ptr %46, align 8
  %47 = load ptr, ptr %8, align 8
  store ptr %47, ptr %4, align 8
  br label %48

48:                                               ; preds = %43, %42, %25, %15
  %49 = load ptr, ptr %4, align 8
  ret ptr %49
}