; Function Attrs: nounwind uwtable
define hidden ptr @lexbor_str_check_size(ptr nocapture noundef %0, ptr noundef %1, i64 noundef %2) local_unnamed_addr #0 {
  %4 = getelementptr inbounds i8, ptr %0, i64 8
  %5 = load i64, ptr %4, align 8
  %6 = xor i64 %2, -1
  %7 = icmp ugt i64 %5, %6
  br i1 %7, label %15, label %8

8:                                                ; preds = %3
  %9 = add i64 %5, %2
  %.val = load ptr, ptr %0, align 8
  %10 = getelementptr i8, ptr %.val, i64 -8
  %.val.val = load i64, ptr %10, align 8
  %.not = icmp ugt i64 %9, %.val.val
  br i1 %.not, label %11, label %15

11:                                               ; preds = %8
  %12 = tail call ptr @lexbor_mraw_realloc(ptr noundef %1, ptr noundef nonnull %.val, i64 noundef %9) #15
  %13 = icmp eq ptr %12, null
  br i1 %13, label %15, label %14

14:                                               ; preds = %11
  store ptr %12, ptr %0, align 8
  br label %15

15:                                               ; preds = %8, %11, %3, %14
  %.0 = phi ptr [ %12, %14 ], [ null, %3 ], [ null, %11 ], [ %.val, %8 ]
  ret ptr %.0
}